; ModuleID = '51/933.c'
source_filename = "51/933.c"
target datalayout = "e-m:e-p270:32:32-p271:32:32-p272:64:64-i64:64-f80:128-n8:16:32:64-S128"
target triple = "x86_64-pc-linux-gnu"

@.str = private unnamed_addr constant [3 x i8] c"%d\00", align 1
@.str.1 = private unnamed_addr constant [3 x i8] c"NO\00", align 1
@.str.2 = private unnamed_addr constant [4 x i8] c"%d\0A\00", align 1
@.str.3 = private unnamed_addr constant [4 x i8] c"%s\0A\00", align 1

; Function Attrs: noinline nounwind uwtable
define dso_local void @main() #0 {
  %1 = alloca [500 x i8], align 16
  %2 = alloca [500 x [5 x i8]], align 16
  %3 = alloca i32, align 4
  %4 = alloca i32, align 4
  %5 = alloca i32, align 4
  %6 = alloca i32, align 4
  %7 = alloca i32, align 4
  %8 = alloca i32, align 4
  %9 = alloca [500 x i32], align 16
  %10 = bitcast [500 x [5 x i8]]* %2 to i8*
  call void @llvm.memset.p0i8.i64(i8* align 16 %10, i8 0, i64 2500, i1 false)
  store i32 0, i32* %8, align 4
  %11 = bitcast [500 x i32]* %9 to i8*
  call void @llvm.memset.p0i8.i64(i8* align 16 %11, i8 0, i64 2000, i1 false)
  %12 = call i32 (i8*, ...) @__isoc99_scanf(i8* getelementptr inbounds ([3 x i8], [3 x i8]* @.str, i64 0, i64 0), i32* %3)
  %13 = call i32 @getchar()
  %14 = getelementptr inbounds [500 x i8], [500 x i8]* %1, i64 0, i64 0
  %15 = call i32 (i8*, ...) bitcast (i32 (...)* @gets to i32 (i8*, ...)*)(i8* %14)
  %16 = getelementptr inbounds [500 x i8], [500 x i8]* %1, i64 0, i64 0
  %17 = call i64 @strlen(i8* %16) #4
  %18 = trunc i64 %17 to i32
  store i32 %18, i32* %6, align 4
  store i32 0, i32* %4, align 4
  br label %19

19:                                               ; preds = %57, %0
  %20 = load i32, i32* %4, align 4
  %21 = load i32, i32* %6, align 4
  %22 = load i32, i32* %3, align 4
  %23 = sub nsw i32 %21, %22
  %24 = add nsw i32 %23, 1
  %25 = icmp slt i32 %20, %24
  br i1 %25, label %26, label %60

26:                                               ; preds = %19
  %27 = load i32, i32* %4, align 4
  store i32 %27, i32* %5, align 4
  br label %28

28:                                               ; preds = %47, %26
  %29 = load i32, i32* %5, align 4
  %30 = load i32, i32* %3, align 4
  %31 = load i32, i32* %4, align 4
  %32 = add nsw i32 %30, %31
  %33 = icmp slt i32 %29, %32
  br i1 %33, label %34, label %50

34:                                               ; preds = %28
  %35 = load i32, i32* %5, align 4
  %36 = sext i32 %35 to i64
  %37 = getelementptr inbounds [500 x i8], [500 x i8]* %1, i64 0, i64 %36
  %38 = load i8, i8* %37, align 1
  %39 = load i32, i32* %4, align 4
  %40 = sext i32 %39 to i64
  %41 = getelementptr inbounds [500 x [5 x i8]], [500 x [5 x i8]]* %2, i64 0, i64 %40
  %42 = load i32, i32* %5, align 4
  %43 = load i32, i32* %4, align 4
  %44 = sub nsw i32 %42, %43
  %45 = sext i32 %44 to i64
  %46 = getelementptr inbounds [5 x i8], [5 x i8]* %41, i64 0, i64 %45
  store i8 %38, i8* %46, align 1
  br label %47

47:                                               ; preds = %34
  %48 = load i32, i32* %5, align 4
  %49 = add nsw i32 %48, 1
  store i32 %49, i32* %5, align 4
  br label %28

50:                                               ; preds = %28
  %51 = load i32, i32* %4, align 4
  %52 = sext i32 %51 to i64
  %53 = getelementptr inbounds [500 x [5 x i8]], [500 x [5 x i8]]* %2, i64 0, i64 %52
  %54 = load i32, i32* %3, align 4
  %55 = sext i32 %54 to i64
  %56 = getelementptr inbounds [5 x i8], [5 x i8]* %53, i64 0, i64 %55
  store i8 0, i8* %56, align 1
  br label %57

57:                                               ; preds = %50
  %58 = load i32, i32* %4, align 4
  %59 = add nsw i32 %58, 1
  store i32 %59, i32* %4, align 4
  br label %19

60:                                               ; preds = %19
  store i32 0, i32* %7, align 4
  store i32 0, i32* %4, align 4
  br label %61

61:                                               ; preds = %136, %60
  %62 = load i32, i32* %4, align 4
  %63 = load i32, i32* %6, align 4
  %64 = load i32, i32* %3, align 4
  %65 = sub nsw i32 %63, %64
  %66 = add nsw i32 %65, 1
  %67 = icmp slt i32 %62, %66
  br i1 %67, label %68, label %139

68:                                               ; preds = %61
  %69 = load i32, i32* %4, align 4
  %70 = sext i32 %69 to i64
  %71 = getelementptr inbounds [500 x i32], [500 x i32]* %9, i64 0, i64 %70
  %72 = load i32, i32* %71, align 4
  %73 = icmp ne i32 %72, 1
  br i1 %73, label %74, label %135

74:                                               ; preds = %68
  %75 = load i32, i32* %4, align 4
  %76 = sext i32 %75 to i64
  %77 = getelementptr inbounds [500 x i32], [500 x i32]* %9, i64 0, i64 %76
  store i32 0, i32* %77, align 4
  %78 = load i32, i32* %4, align 4
  store i32 %78, i32* %5, align 4
  br label %79

79:                                               ; preds = %110, %74
  %80 = load i32, i32* %5, align 4
  %81 = load i32, i32* %6, align 4
  %82 = load i32, i32* %3, align 4
  %83 = sub nsw i32 %81, %82
  %84 = add nsw i32 %83, 1
  %85 = icmp slt i32 %80, %84
  br i1 %85, label %86, label %113

86:                                               ; preds = %79
  %87 = load i32, i32* %4, align 4
  %88 = sext i32 %87 to i64
  %89 = getelementptr inbounds [500 x [5 x i8]], [500 x [5 x i8]]* %2, i64 0, i64 %88
  %90 = getelementptr inbounds [5 x i8], [5 x i8]* %89, i64 0, i64 0
  %91 = load i32, i32* %5, align 4
  %92 = sext i32 %91 to i64
  %93 = getelementptr inbounds [500 x [5 x i8]], [500 x [5 x i8]]* %2, i64 0, i64 %92
  %94 = getelementptr inbounds [5 x i8], [5 x i8]* %93, i64 0, i64 0
  %95 = call i32 @strcmp(i8* %90, i8* %94) #4
  %96 = icmp eq i32 %95, 0
  br i1 %96, label %97, label %109

97:                                               ; preds = %86
  %98 = load i32, i32* %4, align 4
  %99 = sext i32 %98 to i64
  %100 = getelementptr inbounds [500 x i32], [500 x i32]* %9, i64 0, i64 %99
  %101 = load i32, i32* %100, align 4
  %102 = add nsw i32 %101, 1
  %103 = load i32, i32* %4, align 4
  %104 = sext i32 %103 to i64
  %105 = getelementptr inbounds [500 x i32], [500 x i32]* %9, i64 0, i64 %104
  store i32 %102, i32* %105, align 4
  %106 = load i32, i32* %5, align 4
  %107 = sext i32 %106 to i64
  %108 = getelementptr inbounds [500 x i32], [500 x i32]* %9, i64 0, i64 %107
  store i32 1, i32* %108, align 4
  br label %109

109:                                              ; preds = %97, %86
  br label %110

110:                                              ; preds = %109
  %111 = load i32, i32* %5, align 4
  %112 = add nsw i32 %111, 1
  store i32 %112, i32* %5, align 4
  br label %79

113:                                              ; preds = %79
  %114 = load i32, i32* %4, align 4
  %115 = sext i32 %114 to i64
  %116 = getelementptr inbounds [500 x i32], [500 x i32]* %9, i64 0, i64 %115
  %117 = load i32, i32* %116, align 4
  %118 = load i32, i32* %7, align 4
  %119 = icmp sgt i32 %117, %118
  br i1 %119, label %120, label %125

120:                                              ; preds = %113
  %121 = load i32, i32* %4, align 4
  %122 = sext i32 %121 to i64
  %123 = getelementptr inbounds [500 x i32], [500 x i32]* %9, i64 0, i64 %122
  %124 = load i32, i32* %123, align 4
  store i32 %124, i32* %7, align 4
  br label %125

125:                                              ; preds = %120, %113
  %126 = load i32, i32* %4, align 4
  %127 = sext i32 %126 to i64
  %128 = getelementptr inbounds [500 x i32], [500 x i32]* %9, i64 0, i64 %127
  %129 = load i32, i32* %128, align 4
  %130 = icmp eq i32 %129, 1
  br i1 %130, label %131, label %134

131:                                              ; preds = %125
  %132 = load i32, i32* %8, align 4
  %133 = add nsw i32 %132, 1
  store i32 %133, i32* %8, align 4
  br label %134

134:                                              ; preds = %131, %125
  br label %135

135:                                              ; preds = %134, %68
  br label %136

136:                                              ; preds = %135
  %137 = load i32, i32* %4, align 4
  %138 = add nsw i32 %137, 1
  store i32 %138, i32* %4, align 4
  br label %61

139:                                              ; preds = %61
  %140 = load i32, i32* %8, align 4
  %141 = load i32, i32* %6, align 4
  %142 = load i32, i32* %3, align 4
  %143 = sub nsw i32 %141, %142
  %144 = add nsw i32 %143, 1
  %145 = icmp eq i32 %140, %144
  br i1 %145, label %146, label %148

146:                                              ; preds = %139
  %147 = call i32 (i8*, ...) @printf(i8* getelementptr inbounds ([3 x i8], [3 x i8]* @.str.1, i64 0, i64 0))
  br label %176

148:                                              ; preds = %139
  %149 = load i32, i32* %7, align 4
  %150 = call i32 (i8*, ...) @printf(i8* getelementptr inbounds ([4 x i8], [4 x i8]* @.str.2, i64 0, i64 0), i32 %149)
  store i32 0, i32* %4, align 4
  br label %151

151:                                              ; preds = %172, %148
  %152 = load i32, i32* %4, align 4
  %153 = load i32, i32* %6, align 4
  %154 = load i32, i32* %3, align 4
  %155 = sub nsw i32 %153, %154
  %156 = add nsw i32 %155, 1
  %157 = icmp slt i32 %152, %156
  br i1 %157, label %158, label %175

158:                                              ; preds = %151
  %159 = load i32, i32* %4, align 4
  %160 = sext i32 %159 to i64
  %161 = getelementptr inbounds [500 x i32], [500 x i32]* %9, i64 0, i64 %160
  %162 = load i32, i32* %161, align 4
  %163 = load i32, i32* %7, align 4
  %164 = icmp eq i32 %162, %163
  br i1 %164, label %165, label %171

165:                                              ; preds = %158
  %166 = load i32, i32* %4, align 4
  %167 = sext i32 %166 to i64
  %168 = getelementptr inbounds [500 x [5 x i8]], [500 x [5 x i8]]* %2, i64 0, i64 %167
  %169 = getelementptr inbounds [5 x i8], [5 x i8]* %168, i64 0, i64 0
  %170 = call i32 (i8*, ...) @printf(i8* getelementptr inbounds ([4 x i8], [4 x i8]* @.str.3, i64 0, i64 0), i8* %169)
  br label %171

171:                                              ; preds = %165, %158
  br label %172

172:                                              ; preds = %171
  %173 = load i32, i32* %4, align 4
  %174 = add nsw i32 %173, 1
  store i32 %174, i32* %4, align 4
  br label %151

175:                                              ; preds = %151
  br label %176

176:                                              ; preds = %175, %146
  ret void
}

; Function Attrs: argmemonly nounwind willreturn
declare void @llvm.memset.p0i8.i64(i8* nocapture writeonly, i8, i64, i1 immarg) #1

declare dso_local i32 @__isoc99_scanf(i8*, ...) #2

declare dso_local i32 @getchar() #2

declare dso_local i32 @gets(...) #2

; Function Attrs: nounwind readonly
declare dso_local i64 @strlen(i8*) #3

; Function Attrs: nounwind readonly
declare dso_local i32 @strcmp(i8*, i8*) #3

declare dso_local i32 @printf(i8*, ...) #2


!llvm.module.flags = !{!0}
!llvm.ident = !{!1}

!0 = !{i32 1, !"wchar_size", i32 4}
!1 = !{!"clang version 10.0.0-4ubuntu1 "}
